; Function Attrs: mustprogress nounwind uwtable
define dso_local noundef ptr @_ZNK4node11UDPWrapBase8listenerEv(ptr nocapture noundef nonnull readonly align 8 dereferenceable(16) %this) local_unnamed_addr #3 align 2 {
entry:
  %listener_ = getelementptr inbounds i8, ptr %this, i64 8
  %0 = load ptr, ptr %listener_, align 8
  %cmp.not = icmp eq ptr %0, null
  br i1 %cmp.not, label %do.body4, label %do.end5

do.body4:                                         ; preds = %entry
  tail call void @_ZN4node6AssertERKNS_13AssertionInfoE(ptr noundef nonnull align 8 dereferenceable(24) @_ZZNK4node11UDPWrapBase8listenerEvE4args) #19
  tail call void @abort() #20
  unreachable

do.end5:                                          ; preds = %entry
  ret ptr %0
}